target datalayout = "e-m:e-p270:32:32-p271:32:32-p272:64:64-i64:64-i128:128-f80:128-n8:16:32:64-S128"
target triple = "x86_64-pc-linux-gnu"

%struct._header_field_info = type { ptr, ptr, i32, i32, ptr, i64, ptr, i32, i32, i32, i32, ptr }

@.str.12 = private unnamed_addr constant [8 x i8] c"Unknown\00", align 1
@hf_glusterfs_flags = internal global i32 0, align 4
@hf_glusterfs_flags_rdonly = internal global i32 0, align 4
@hf_glusterfs_flags_accmode = internal global i32 0, align 4
@ett_glusterfs_flags = internal global i32 0, align 4
@.str.562 = private unnamed_addr constant [5 x i8] c", %s\00", align 1
@.str.563 = private unnamed_addr constant [3 x i8] c"%s\00", align 1

; Function Attrs: null_pointer_is_valid sspstrong uwtable
define internal i32 @glusterfs_rpc_dissect_flags(ptr noundef %0, ptr noundef %1, i32 noundef %2) #0 {
  %4 = alloca ptr, align 8
  %5 = alloca ptr, align 8
  %6 = alloca i32, align 4
  %7 = alloca i8, align 1
  %8 = alloca i32, align 4
  %9 = alloca ptr, align 8
  %10 = alloca ptr, align 8
  %11 = alloca ptr, align 8
  store ptr %0, ptr %4, align 8
  store ptr %1, ptr %5, align 8
  store i32 %2, ptr %6, align 4
  call void @llvm.lifetime.start.p0(i64 1, ptr %7) #5
  call void @llvm.lifetime.start.p0(i64 4, ptr %8) #5
  call void @llvm.lifetime.start.p0(i64 8, ptr %9) #5
  call void @llvm.lifetime.start.p0(i64 8, ptr %10) #5
  call void @llvm.lifetime.start.p0(i64 8, ptr %11) #5
  %12 = load ptr, ptr %4, align 8
  %13 = load ptr, ptr %5, align 8
  %14 = load i32, ptr %6, align 4
  %15 = load i32, ptr @hf_glusterfs_flags, align 4
  %16 = load i32, ptr @ett_glusterfs_flags, align 4
  %17 = call ptr @proto_tree_add_bitmask(ptr noundef %12, ptr noundef %13, i32 noundef %14, i32 noundef %15, i32 noundef %16, ptr noundef @glusterfs_rpc_dissect_flags.flag_bits, i32 noundef 0)
  store ptr %17, ptr %9, align 8
  %18 = load ptr, ptr %5, align 8
  %19 = load i32, ptr %6, align 4
  %20 = call i32 @tvb_get_ntohl(ptr noundef %18, i32 noundef %19)
  %21 = icmp eq i32 %20, 0
  %22 = zext i1 %21 to i8
  store i8 %22, ptr %7, align 1
  %23 = load ptr, ptr %9, align 8
  %24 = load i32, ptr @hf_glusterfs_flags_rdonly, align 4
  %25 = load ptr, ptr %5, align 8
  %26 = load i32, ptr %6, align 4
  %27 = call ptr @proto_tree_add_item(ptr noundef %23, i32 noundef %24, ptr noundef %25, i32 noundef %26, i32 noundef 4, i32 noundef 0)
  %28 = load i8, ptr %7, align 1, !range !8, !noundef !9
  %29 = trunc i8 %28 to i1
  br i1 %29, label %30, label %37

30:                                               ; preds = %3
  %31 = load i32, ptr @hf_glusterfs_flags_rdonly, align 4
  %32 = call ptr @proto_registrar_get_nth(i32 noundef %31)
  store ptr %32, ptr %10, align 8
  %33 = load ptr, ptr %9, align 8
  %34 = load ptr, ptr %10, align 8
  %35 = getelementptr inbounds nuw %struct._header_field_info, ptr %34, i32 0, i32 0
  %36 = load ptr, ptr %35, align 8
  call void (ptr, ptr, ...) @proto_item_append_text(ptr noundef %33, ptr noundef @.str.562, ptr noundef %36)
  br label %37

37:                                               ; preds = %30, %3
  %38 = load i32, ptr @hf_glusterfs_flags_accmode, align 4
  %39 = call ptr @proto_registrar_get_nth(i32 noundef %38)
  store ptr %39, ptr %11, align 8
  %40 = load ptr, ptr %5, align 8
  %41 = load i32, ptr %6, align 4
  %42 = call i32 @tvb_get_ntohl(ptr noundef %40, i32 noundef %41)
  store i32 %42, ptr %8, align 4
  %43 = load ptr, ptr %9, align 8
  %44 = load i32, ptr @hf_glusterfs_flags_accmode, align 4
  %45 = load ptr, ptr %5, align 8
  %46 = load i32, ptr %6, align 4
  %47 = load i32, ptr %8, align 4
  %48 = load i32, ptr %8, align 4
  %49 = load ptr, ptr %11, align 8
  %50 = getelementptr inbounds nuw %struct._header_field_info, ptr %49, i32 0, i32 5
  %51 = load i64, ptr %50, align 8
  %52 = trunc i64 %51 to i32
  %53 = and i32 %48, %52
  %54 = call ptr @val_to_str_const(i32 noundef %53, ptr noundef @glusterfs_accmode_vals, ptr noundef @.str.12)
  %55 = call ptr (ptr, i32, ptr, i32, i32, i32, ptr, ...) @proto_tree_add_uint_format_value(ptr noundef %43, i32 noundef %44, ptr noundef %45, i32 noundef %46, i32 noundef 4, i32 noundef %47, ptr noundef @.str.563, ptr noundef %54)
  %56 = load i32, ptr %8, align 4
  %57 = zext i32 %56 to i64
  %58 = load ptr, ptr %11, align 8
  %59 = getelementptr inbounds nuw %struct._header_field_info, ptr %58, i32 0, i32 5
  %60 = load i64, ptr %59, align 8
  %61 = and i64 %57, %60
  %62 = load ptr, ptr %11, align 8
  %63 = getelementptr inbounds nuw %struct._header_field_info, ptr %62, i32 0, i32 5
  %64 = load i64, ptr %63, align 8
  %65 = icmp eq i64 %61, %64
  br i1 %65, label %66, label %72

66:                                               ; preds = %37
  %67 = load ptr, ptr %9, align 8
  %68 = load i32, ptr @hf_glusterfs_flags_accmode, align 4
  %69 = call ptr @proto_registrar_get_nth(i32 noundef %68)
  %70 = getelementptr inbounds nuw %struct._header_field_info, ptr %69, i32 0, i32 0
  %71 = load ptr, ptr %70, align 8
  call void (ptr, ptr, ...) @proto_item_append_text(ptr noundef %67, ptr noundef @.str.562, ptr noundef %71)
  br label %72

72:                                               ; preds = %66, %37
  %73 = load i32, ptr %6, align 4
  %74 = add i32 %73, 4
  store i32 %74, ptr %6, align 4
  %75 = load i32, ptr %6, align 4
  call void @llvm.lifetime.end.p0(i64 8, ptr %11) #5
  call void @llvm.lifetime.end.p0(i64 8, ptr %10) #5
  call void @llvm.lifetime.end.p0(i64 8, ptr %9) #5
  call void @llvm.lifetime.end.p0(i64 4, ptr %8) #5
  call void @llvm.lifetime.end.p0(i64 1, ptr %7) #5
  ret i32 %75
}