; Function Attrs: null_pointer_is_valid sspstrong uwtable
define internal fastcc noundef i32 @glusterfs_rpc_dissect_flags(ptr noundef %0, ptr noundef %1, i32 noundef %2) unnamed_addr #0 {
  %4 = load i32, ptr @hf_glusterfs_flags, align 4
  %5 = load i32, ptr @ett_glusterfs_flags, align 4
  %6 = tail call ptr @proto_tree_add_bitmask(ptr noundef %0, ptr noundef %1, i32 noundef %2, i32 noundef %4, i32 noundef %5, ptr noundef nonnull @glusterfs_rpc_dissect_flags.flag_bits, i32 noundef 0)
  %7 = tail call i32 @tvb_get_ntohl(ptr noundef %1, i32 noundef %2)
  %8 = icmp eq i32 %7, 0
  %9 = load i32, ptr @hf_glusterfs_flags_rdonly, align 4
  %10 = tail call ptr @proto_tree_add_item(ptr noundef %6, i32 noundef %9, ptr noundef %1, i32 noundef %2, i32 noundef 4, i32 noundef 0)
  br i1 %8, label %11, label %15

11:                                               ; preds = %3
  %12 = load i32, ptr @hf_glusterfs_flags_rdonly, align 4
  %13 = tail call ptr @proto_registrar_get_nth(i32 noundef %12)
  %14 = load ptr, ptr %13, align 8
  tail call void (ptr, ptr, ...) @proto_item_append_text(ptr noundef %6, ptr noundef nonnull @.str.562, ptr noundef %14)
  br label %15

15:                                               ; preds = %11, %3
  %16 = load i32, ptr @hf_glusterfs_flags_accmode, align 4
  %17 = tail call ptr @proto_registrar_get_nth(i32 noundef %16)
  %18 = tail call i32 @tvb_get_ntohl(ptr noundef %1, i32 noundef %2)
  %19 = load i32, ptr @hf_glusterfs_flags_accmode, align 4
  %20 = getelementptr inbounds nuw i8, ptr %17, i64 32
  %21 = load i64, ptr %20, align 8
  %22 = trunc i64 %21 to i32
  %23 = and i32 %18, %22
  %24 = tail call ptr @val_to_str_const(i32 noundef %23, ptr noundef nonnull @glusterfs_accmode_vals, ptr noundef nonnull @.str.12)
  %25 = tail call ptr (ptr, i32, ptr, i32, i32, i32, ptr, ...) @proto_tree_add_uint_format_value(ptr noundef %6, i32 noundef %19, ptr noundef %1, i32 noundef %2, i32 noundef 4, i32 noundef %18, ptr noundef nonnull @.str.563, ptr noundef %24)
  %26 = zext i32 %18 to i64
  %27 = load i64, ptr %20, align 8
  %28 = and i64 %27, %26
  %29 = icmp eq i64 %28, %27
  br i1 %29, label %30, label %34

30:                                               ; preds = %15
  %31 = load i32, ptr @hf_glusterfs_flags_accmode, align 4
  %32 = tail call ptr @proto_registrar_get_nth(i32 noundef %31)
  %33 = load ptr, ptr %32, align 8
  tail call void (ptr, ptr, ...) @proto_item_append_text(ptr noundef %6, ptr noundef nonnull @.str.562, ptr noundef %33)
  br label %34

34:                                               ; preds = %30, %15
  %35 = add i32 %2, 4
  ret i32 %35
}